target datalayout = "e-m:e-p270:32:32-p271:32:32-p272:64:64-i64:64-i128:128-f80:128-n8:16:32:64-S128"
target triple = "x86_64-unknown-linux-gnu"

%"class.icu_75::LanguageBreakEngine" = type { %"class.icu_75::UObject" }
%"class.icu_75::UObject" = type { ptr }
%"class.icu_75::LocalPointer.1" = type { %"class.icu_75::LocalPointerBase.2" }
%"class.icu_75::LocalPointerBase.2" = type { ptr }
%"class.icu_75::BreakEngineWrapper" = type { %"class.icu_75::LanguageBreakEngine", %"class.icu_75::LocalPointer.1" }
%"class.icu_75::UVector32" = type { %"class.icu_75::UObject", i32, i32, i32, ptr }

; Function Attrs: mustprogress nounwind uwtable
define linkonce_odr noundef ptr @_ZNK6icu_759UVector329getBufferEv(ptr noundef nonnull align 8 dereferenceable(32) %this) #0 comdat align 2 {
entry:
  %this.addr = alloca ptr, align 8
  store ptr %this, ptr %this.addr, align 8
  %this1 = load ptr, ptr %this.addr, align 8
  %elements = getelementptr inbounds %"class.icu_75::UVector32", ptr %this1, i32 0, i32 4
  %0 = load ptr, ptr %elements, align 8
  ret ptr %0
}

; Function Attrs: mustprogress uwtable
define linkonce_odr noundef signext i8 @_ZN6icu_759UVector3214ensureCapacityEiR10UErrorCode(ptr noundef nonnull align 8 dereferenceable(32) %this, i32 noundef %minimumCapacity, ptr noundef nonnull align 4 dereferenceable(4) %status) #1 comdat align 2 {
entry:
  %retval = alloca i8, align 1
  %this.addr = alloca ptr, align 8
  %minimumCapacity.addr = alloca i32, align 4
  %status.addr = alloca ptr, align 8
  store ptr %this, ptr %this.addr, align 8
  store i32 %minimumCapacity, ptr %minimumCapacity.addr, align 4
  store ptr %status, ptr %status.addr, align 8
  %this1 = load ptr, ptr %this.addr, align 8
  %0 = load i32, ptr %minimumCapacity.addr, align 4
  %cmp = icmp sge i32 %0, 0
  br i1 %cmp, label %land.lhs.true, label %if.else

land.lhs.true:                                    ; preds = %entry
  %capacity = getelementptr inbounds %"class.icu_75::UVector32", ptr %this1, i32 0, i32 2
  %1 = load i32, ptr %capacity, align 4
  %2 = load i32, ptr %minimumCapacity.addr, align 4
  %cmp2 = icmp sge i32 %1, %2
  br i1 %cmp2, label %if.then, label %if.else

if.then:                                          ; preds = %land.lhs.true
  store i8 1, ptr %retval, align 1
  br label %return

if.else:                                          ; preds = %land.lhs.true, %entry
  %3 = load i32, ptr %minimumCapacity.addr, align 4
  %4 = load ptr, ptr %status.addr, align 8
  %call = call noundef signext i8 @_ZN6icu_759UVector3214expandCapacityEiR10UErrorCode(ptr noundef nonnull align 8 dereferenceable(32) %this1, i32 noundef %3, ptr noundef nonnull align 4 dereferenceable(4) %4)
  store i8 %call, ptr %retval, align 1
  br label %return

return:                                           ; preds = %if.else, %if.then
  %5 = load i8, ptr %retval, align 1
  ret i8 %5
}

; Function Attrs: mustprogress nounwind uwtable
define linkonce_odr noundef i32 @_ZNK6icu_759UVector324sizeEv(ptr noundef nonnull align 8 dereferenceable(32) %this) #0 comdat align 2 {
entry:
  %this.addr = alloca ptr, align 8
  store ptr %this, ptr %this.addr, align 8
  %this1 = load ptr, ptr %this.addr, align 8
  %count = getelementptr inbounds %"class.icu_75::UVector32", ptr %this1, i32 0, i32 1
  %0 = load i32, ptr %count, align 8
  ret i32 %0
}

; Function Attrs: mustprogress nounwind uwtable
define linkonce_odr noundef ptr @_ZNK6icu_7516LocalPointerBaseINS_19ExternalBreakEngineEEptEv(ptr noundef nonnull align 8 dereferenceable(8) %this) #0 comdat align 2 {
entry:
  %this.addr = alloca ptr, align 8
  store ptr %this, ptr %this.addr, align 8
  %this1 = load ptr, ptr %this.addr, align 8
  %ptr = getelementptr inbounds %"class.icu_75::LocalPointerBase.2", ptr %this1, i32 0, i32 0
  %0 = load ptr, ptr %ptr, align 8
  ret ptr %0
}

; Function Attrs: mustprogress nounwind uwtable
define internal noundef signext i8 @_ZL9U_FAILURE10UErrorCode(i32 noundef %code) #0 {
entry:
  %code.addr = alloca i32, align 4
  store i32 %code, ptr %code.addr, align 4
  %0 = load i32, ptr %code.addr, align 4
  %cmp = icmp sgt i32 %0, 0
  %conv = zext i1 %cmp to i8
  ret i8 %conv
}

; Function Attrs: mustprogress uwtable
define noundef i32 @_ZNK6icu_7518BreakEngineWrapper10findBreaksEP5UTextiiRNS_9UVector32EaR10UErrorCode(ptr noundef nonnull align 8 dereferenceable(16) %this, ptr noundef %text, i32 noundef %startPos, i32 noundef %endPos, ptr noundef nonnull align 8 dereferenceable(32) %foundBreaks, i8 noundef signext %0, ptr noundef nonnull align 4 dereferenceable(4) %status) unnamed_addr #1 align 2 {
entry:
  %retval = alloca i32, align 4
  %this.addr = alloca ptr, align 8
  %text.addr = alloca ptr, align 8
  %startPos.addr = alloca i32, align 4
  %endPos.addr = alloca i32, align 4
  %foundBreaks.addr = alloca ptr, align 8
  %.addr = alloca i8, align 1
  %status.addr = alloca ptr, align 8
  %result = alloca i32, align 4
  %start = alloca i32, align 4
  %current = alloca i32, align 4
  %rangeStart = alloca i32, align 4
  %rangeEnd = alloca i32, align 4
  %c = alloca i32, align 4
  %beforeSize = alloca i32, align 4
  %additionalCapacity = alloca i32, align 4
  store ptr %this, ptr %this.addr, align 8
  store ptr %text, ptr %text.addr, align 8
  store i32 %startPos, ptr %startPos.addr, align 4
  store i32 %endPos, ptr %endPos.addr, align 4
  store ptr %foundBreaks, ptr %foundBreaks.addr, align 8
  store i8 %0, ptr %.addr, align 1
  store ptr %status, ptr %status.addr, align 8
  %this1 = load ptr, ptr %this.addr, align 8
  %1 = load ptr, ptr %status.addr, align 8
  %2 = load i32, ptr %1, align 4
  %call = call noundef signext i8 @_ZL9U_FAILURE10UErrorCode(i32 noundef %2)
  %tobool = icmp ne i8 %call, 0
  br i1 %tobool, label %if.then, label %if.end

if.then:                                          ; preds = %entry
  store i32 0, ptr %retval, align 4
  br label %return

if.end:                                           ; preds = %entry
  store i32 0, ptr %result, align 4
  %3 = load ptr, ptr %text.addr, align 8
  %4 = load i32, ptr %startPos.addr, align 4
  %conv = sext i32 %4 to i64
  call void @utext_setNativeIndex_75(ptr noundef %3, i64 noundef %conv)
  %5 = load ptr, ptr %text.addr, align 8
  %call2 = call i64 @utext_getNativeIndex_75(ptr noundef %5)
  %conv3 = trunc i64 %call2 to i32
  store i32 %conv3, ptr %start, align 4
  %6 = load ptr, ptr %text.addr, align 8
  %call4 = call i32 @utext_current32_75(ptr noundef %6)
  store i32 %call4, ptr %c, align 4
  br label %while.cond

while.cond:                                       ; preds = %while.body, %if.end
  %7 = load ptr, ptr %text.addr, align 8
  %call5 = call i64 @utext_getNativeIndex_75(ptr noundef %7)
  %conv6 = trunc i64 %call5 to i32
  store i32 %conv6, ptr %current, align 4
  %8 = load i32, ptr %endPos.addr, align 4
  %cmp = icmp slt i32 %conv6, %8
  br i1 %cmp, label %land.rhs, label %land.end

land.rhs:                                         ; preds = %while.cond
  %delegate = getelementptr inbounds %"class.icu_75::BreakEngineWrapper", ptr %this1, i32 0, i32 1
  %call7 = call noundef ptr @_ZNK6icu_7516LocalPointerBaseINS_19ExternalBreakEngineEEptEv(ptr noundef nonnull align 8 dereferenceable(8) %delegate)
  %9 = load i32, ptr %c, align 4
  %vtable = load ptr, ptr %call7, align 8
  %vfn = getelementptr inbounds ptr, ptr %vtable, i64 4
  %10 = load ptr, ptr %vfn, align 8
  %call8 = call noundef zeroext i1 %10(ptr noundef nonnull align 8 dereferenceable(8) %call7, i32 noundef %9)
  br label %land.end

land.end:                                         ; preds = %land.rhs, %while.cond
  %11 = phi i1 [ false, %while.cond ], [ %call8, %land.rhs ]
  br i1 %11, label %while.body, label %while.end

while.body:                                       ; preds = %land.end
  %12 = load ptr, ptr %text.addr, align 8
  %call9 = call i32 @utext_next32_75(ptr noundef %12)
  %13 = load ptr, ptr %text.addr, align 8
  %call10 = call i32 @utext_current32_75(ptr noundef %13)
  store i32 %call10, ptr %c, align 4
  br label %while.cond, !llvm.loop !8

while.end:                                        ; preds = %land.end
  %14 = load i32, ptr %start, align 4
  store i32 %14, ptr %rangeStart, align 4
  %15 = load i32, ptr %current, align 4
  store i32 %15, ptr %rangeEnd, align 4
  %16 = load ptr, ptr %foundBreaks.addr, align 8
  %call11 = call noundef i32 @_ZNK6icu_759UVector324sizeEv(ptr noundef nonnull align 8 dereferenceable(32) %16)
  store i32 %call11, ptr %beforeSize, align 4
  %17 = load i32, ptr %rangeEnd, align 4
  %18 = load i32, ptr %rangeStart, align 4
  %sub = sub nsw i32 %17, %18
  %add = add nsw i32 %sub, 1
  store i32 %add, ptr %additionalCapacity, align 4
  %19 = load ptr, ptr %foundBreaks.addr, align 8
  %20 = load i32, ptr %beforeSize, align 4
  %21 = load i32, ptr %additionalCapacity, align 4
  %add12 = add nsw i32 %20, %21
  %22 = load ptr, ptr %status.addr, align 8
  %call13 = call noundef signext i8 @_ZN6icu_759UVector3214ensureCapacityEiR10UErrorCode(ptr noundef nonnull align 8 dereferenceable(32) %19, i32 noundef %add12, ptr noundef nonnull align 4 dereferenceable(4) %22)
  %23 = load ptr, ptr %status.addr, align 8
  %24 = load i32, ptr %23, align 4
  %call14 = call noundef signext i8 @_ZL9U_FAILURE10UErrorCode(i32 noundef %24)
  %tobool15 = icmp ne i8 %call14, 0
  br i1 %tobool15, label %if.then16, label %if.end17

if.then16:                                        ; preds = %while.end
  store i32 0, ptr %retval, align 4
  br label %return

if.end17:                                         ; preds = %while.end
  %25 = load ptr, ptr %foundBreaks.addr, align 8
  %26 = load i32, ptr %beforeSize, align 4
  %27 = load i32, ptr %beforeSize, align 4
  %add18 = add nsw i32 %26, %27
  %28 = load i32, ptr %additionalCapacity, align 4
  %add19 = add nsw i32 %add18, %28
  call void @_ZN6icu_759UVector327setSizeEi(ptr noundef nonnull align 8 dereferenceable(32) %25, i32 noundef %add19)
  %delegate20 = getelementptr inbounds %"class.icu_75::BreakEngineWrapper", ptr %this1, i32 0, i32 1
  %call21 = call noundef ptr @_ZNK6icu_7516LocalPointerBaseINS_19ExternalBreakEngineEEptEv(ptr noundef nonnull align 8 dereferenceable(8) %delegate20)
  %29 = load ptr, ptr %text.addr, align 8
  %30 = load i32, ptr %rangeStart, align 4
  %31 = load i32, ptr %rangeEnd, align 4
  %32 = load ptr, ptr %foundBreaks.addr, align 8
  %call22 = call noundef ptr @_ZNK6icu_759UVector329getBufferEv(ptr noundef nonnull align 8 dereferenceable(32) %32)
  %33 = load i32, ptr %beforeSize, align 4
  %idx.ext = sext i32 %33 to i64
  %add.ptr = getelementptr inbounds i32, ptr %call22, i64 %idx.ext
  %34 = load i32, ptr %additionalCapacity, align 4
  %35 = load ptr, ptr %status.addr, align 8
  %vtable23 = load ptr, ptr %call21, align 8
  %vfn24 = getelementptr inbounds ptr, ptr %vtable23, i64 5
  %36 = load ptr, ptr %vfn24, align 8
  %call25 = call noundef i32 %36(ptr noundef nonnull align 8 dereferenceable(8) %call21, ptr noundef %29, i32 noundef %30, i32 noundef %31, ptr noundef %add.ptr, i32 noundef %34, ptr noundef nonnull align 4 dereferenceable(4) %35)
  store i32 %call25, ptr %result, align 4
  %37 = load ptr, ptr %status.addr, align 8
  %38 = load i32, ptr %37, align 4
  %call26 = call noundef signext i8 @_ZL9U_FAILURE10UErrorCode(i32 noundef %38)
  %tobool27 = icmp ne i8 %call26, 0
  br i1 %tobool27, label %if.then28, label %if.end29

if.then28:                                        ; preds = %if.end17
  store i32 0, ptr %retval, align 4
  br label %return

if.end29:                                         ; preds = %if.end17
  %39 = load ptr, ptr %foundBreaks.addr, align 8
  %40 = load i32, ptr %beforeSize, align 4
  %41 = load i32, ptr %result, align 4
  %add30 = add nsw i32 %40, %41
  call void @_ZN6icu_759UVector327setSizeEi(ptr noundef nonnull align 8 dereferenceable(32) %39, i32 noundef %add30)
  %42 = load ptr, ptr %text.addr, align 8
  %43 = load i32, ptr %current, align 4
  %conv31 = sext i32 %43 to i64
  call void @utext_setNativeIndex_75(ptr noundef %42, i64 noundef %conv31)
  %44 = load i32, ptr %result, align 4
  store i32 %44, ptr %retval, align 4
  br label %return

return:                                           ; preds = %if.end29, %if.then28, %if.then16, %if.then
  %45 = load i32, ptr %retval, align 4
  ret i32 %45
}