; Function Attrs: mustprogress uwtable
define noundef i32 @_ZNK6icu_7518BreakEngineWrapper10findBreaksEP5UTextiiRNS_9UVector32EaR10UErrorCode(ptr nocapture noundef nonnull readonly align 8 dereferenceable(16) %this, ptr noundef %text, i32 noundef %startPos, i32 noundef %endPos, ptr noundef nonnull align 8 dereferenceable(32) %foundBreaks, i8 signext %0, ptr noundef nonnull align 4 dereferenceable(4) %status) unnamed_addr #1 align 2 {
entry:
  %1 = load i32, ptr %status, align 4
  %cmp.i = icmp slt i32 %1, 1
  br i1 %cmp.i, label %if.end, label %return

if.end:                                           ; preds = %entry
  %conv = sext i32 %startPos to i64
  tail call void @utext_setNativeIndex_75(ptr noundef %text, i64 noundef %conv)
  %call2 = tail call i64 @utext_getNativeIndex_75(ptr noundef %text)
  %conv3 = trunc i64 %call2 to i32
  %call4 = tail call i32 @utext_current32_75(ptr noundef %text)
  %call531 = tail call i64 @utext_getNativeIndex_75(ptr noundef %text)
  %conv632 = trunc i64 %call531 to i32
  %cmp33 = icmp slt i32 %conv632, %endPos
  br i1 %cmp33, label %land.rhs.lr.ph, label %while.end

land.rhs.lr.ph:                                   ; preds = %if.end
  %delegate = getelementptr inbounds i8, ptr %this, i64 8
  %2 = load ptr, ptr %delegate, align 8
  %vtable40 = load ptr, ptr %2, align 8
  %vfn41 = getelementptr inbounds i8, ptr %vtable40, i64 32
  %3 = load ptr, ptr %vfn41, align 8
  %call842 = tail call noundef zeroext i1 %3(ptr noundef nonnull align 8 dereferenceable(8) %2, i32 noundef %call4)
  br i1 %call842, label %while.body, label %while.end

land.rhs:                                         ; preds = %while.body
  %4 = load ptr, ptr %delegate, align 8
  %vtable = load ptr, ptr %4, align 8
  %vfn = getelementptr inbounds i8, ptr %vtable, i64 32
  %5 = load ptr, ptr %vfn, align 8
  %call8 = tail call noundef zeroext i1 %5(ptr noundef nonnull align 8 dereferenceable(8) %4, i32 noundef %call10)
  br i1 %call8, label %while.body, label %while.end, !llvm.loop !8

while.body:                                       ; preds = %land.rhs.lr.ph, %land.rhs
  %call9 = tail call i32 @utext_next32_75(ptr noundef %text)
  %call10 = tail call i32 @utext_current32_75(ptr noundef %text)
  %call5 = tail call i64 @utext_getNativeIndex_75(ptr noundef %text)
  %conv6 = trunc i64 %call5 to i32
  %cmp = icmp slt i32 %conv6, %endPos
  br i1 %cmp, label %land.rhs, label %while.end, !llvm.loop !8

while.end:                                        ; preds = %while.body, %land.rhs, %land.rhs.lr.ph, %if.end
  %call5.lcssa = phi i64 [ %call531, %if.end ], [ %call531, %land.rhs.lr.ph ], [ %call5, %land.rhs ], [ %call5, %while.body ]
  %conv6.lcssa = phi i32 [ %conv632, %if.end ], [ %conv632, %land.rhs.lr.ph ], [ %conv6, %land.rhs ], [ %conv6, %while.body ]
  %count.i = getelementptr inbounds i8, ptr %foundBreaks, i64 8
  %6 = load i32, ptr %count.i, align 8
  %sub = sub nsw i32 %conv6.lcssa, %conv3
  %add = add nsw i32 %sub, 1
  %add12 = add nsw i32 %6, %add
  %cmp.i26 = icmp slt i32 %add12, 0
  %capacity.i = getelementptr inbounds i8, ptr %foundBreaks, i64 12
  %7 = load i32, ptr %capacity.i, align 4
  %cmp2.not.i = icmp slt i32 %7, %add12
  %or.cond.i = select i1 %cmp.i26, i1 true, i1 %cmp2.not.i
  br i1 %or.cond.i, label %if.else.i, label %_ZN6icu_759UVector3214ensureCapacityEiR10UErrorCode.exit

if.else.i:                                        ; preds = %while.end
  %call.i = tail call noundef signext i8 @_ZN6icu_759UVector3214expandCapacityEiR10UErrorCode(ptr noundef nonnull align 8 dereferenceable(32) %foundBreaks, i32 noundef %add12, ptr noundef nonnull align 4 dereferenceable(4) %status)
  br label %_ZN6icu_759UVector3214ensureCapacityEiR10UErrorCode.exit

_ZN6icu_759UVector3214ensureCapacityEiR10UErrorCode.exit: ; preds = %while.end, %if.else.i
  %8 = load i32, ptr %status, align 4
  %cmp.i27 = icmp slt i32 %8, 1
  br i1 %cmp.i27, label %if.end17, label %return

if.end17:                                         ; preds = %_ZN6icu_759UVector3214ensureCapacityEiR10UErrorCode.exit
  %add18 = shl nsw i32 %6, 1
  %add19 = add nsw i32 %add18, %add
  tail call void @_ZN6icu_759UVector327setSizeEi(ptr noundef nonnull align 8 dereferenceable(32) %foundBreaks, i32 noundef %add19)
  %delegate20 = getelementptr inbounds i8, ptr %this, i64 8
  %9 = load ptr, ptr %delegate20, align 8
  %elements.i = getelementptr inbounds i8, ptr %foundBreaks, i64 24
  %10 = load ptr, ptr %elements.i, align 8
  %idx.ext = sext i32 %6 to i64
  %add.ptr = getelementptr inbounds i32, ptr %10, i64 %idx.ext
  %vtable23 = load ptr, ptr %9, align 8
  %vfn24 = getelementptr inbounds i8, ptr %vtable23, i64 40
  %11 = load ptr, ptr %vfn24, align 8
  %call25 = tail call noundef i32 %11(ptr noundef nonnull align 8 dereferenceable(8) %9, ptr noundef %text, i32 noundef %conv3, i32 noundef %conv6.lcssa, ptr noundef %add.ptr, i32 noundef %add, ptr noundef nonnull align 4 dereferenceable(4) %status)
  %12 = load i32, ptr %status, align 4
  %cmp.i29 = icmp slt i32 %12, 1
  br i1 %cmp.i29, label %if.end29, label %return

if.end29:                                         ; preds = %if.end17
  %add30 = add nsw i32 %call25, %6
  tail call void @_ZN6icu_759UVector327setSizeEi(ptr noundef nonnull align 8 dereferenceable(32) %foundBreaks, i32 noundef %add30)
  %sext = shl i64 %call5.lcssa, 32
  %conv31 = ashr exact i64 %sext, 32
  tail call void @utext_setNativeIndex_75(ptr noundef %text, i64 noundef %conv31)
  br label %return

return:                                           ; preds = %if.end17, %_ZN6icu_759UVector3214ensureCapacityEiR10UErrorCode.exit, %entry, %if.end29
  %retval.0 = phi i32 [ %call25, %if.end29 ], [ 0, %entry ], [ 0, %_ZN6icu_759UVector3214ensureCapacityEiR10UErrorCode.exit ], [ 0, %if.end17 ]
  ret i32 %retval.0
}